; Function Attrs: nounwind uwtable
define internal fastcc noundef ptr @_readRenameStmt() unnamed_addr #0 {
  %1 = alloca i32, align 4
  %2 = tail call noundef ptr @palloc0(i64 noundef 56) #10
  store i32 214, ptr %2, align 4
  call void @llvm.lifetime.start.p0(i64 4, ptr nonnull %1) #10
  %3 = call ptr @pg_strtok(ptr noundef nonnull %1) #10
  %4 = call ptr @pg_strtok(ptr noundef nonnull %1) #10
  %5 = call i64 @strtol(ptr noundef nonnull captures(none) %4, ptr noundef null, i32 noundef 10) #10
  %6 = trunc i64 %5 to i32
  %7 = getelementptr inbounds nuw i8, ptr %2, i64 4
  store i32 %6, ptr %7, align 4
  %8 = call ptr @pg_strtok(ptr noundef nonnull %1) #10
  %9 = call ptr @pg_strtok(ptr noundef nonnull %1) #10
  %10 = call i64 @strtol(ptr noundef nonnull captures(none) %9, ptr noundef null, i32 noundef 10) #10
  %11 = trunc i64 %10 to i32
  %12 = getelementptr inbounds nuw i8, ptr %2, i64 8
  store i32 %11, ptr %12, align 8
  %13 = call ptr @pg_strtok(ptr noundef nonnull %1) #10
  %14 = call ptr @nodeRead(ptr noundef null, i32 noundef 0) #10
  %15 = getelementptr inbounds nuw i8, ptr %2, i64 16
  store ptr %14, ptr %15, align 8
  %16 = call ptr @pg_strtok(ptr noundef nonnull %1) #10
  %17 = call ptr @nodeRead(ptr noundef null, i32 noundef 0) #10
  %18 = getelementptr inbounds nuw i8, ptr %2, i64 24
  store ptr %17, ptr %18, align 8
  %19 = call ptr @pg_strtok(ptr noundef nonnull %1) #10
  %20 = call ptr @pg_strtok(ptr noundef nonnull %1) #10
  %21 = load i32, ptr %1, align 4
  switch i32 %21, label %31 [
    i32 0, label %nullable_string.exit
    i32 2, label %22
  ]

22:                                               ; preds = %0
  %23 = load i8, ptr %20, align 1
  %24 = icmp eq i8 %23, 34
  br i1 %24, label %25, label %31

25:                                               ; preds = %22
  %26 = getelementptr inbounds nuw i8, ptr %20, i64 1
  %27 = load i8, ptr %26, align 1
  %28 = icmp eq i8 %27, 34
  br i1 %28, label %29, label %31

29:                                               ; preds = %25
  %30 = call ptr @pstrdup(ptr noundef nonnull @.str.326) #10
  br label %nullable_string.exit

31:                                               ; preds = %25, %22, %0
  %32 = call ptr @debackslash(ptr noundef %20, i32 noundef %21) #10
  br label %nullable_string.exit

nullable_string.exit:                             ; preds = %0, %29, %31
  %.0.i = phi ptr [ %30, %29 ], [ %32, %31 ], [ null, %0 ]
  %33 = getelementptr inbounds nuw i8, ptr %2, i64 32
  store ptr %.0.i, ptr %33, align 8
  %34 = call ptr @pg_strtok(ptr noundef nonnull %1) #10
  %35 = call ptr @pg_strtok(ptr noundef nonnull %1) #10
  %36 = load i32, ptr %1, align 4
  switch i32 %36, label %46 [
    i32 0, label %nullable_string.exit16
    i32 2, label %37
  ]

37:                                               ; preds = %nullable_string.exit
  %38 = load i8, ptr %35, align 1
  %39 = icmp eq i8 %38, 34
  br i1 %39, label %40, label %46

40:                                               ; preds = %37
  %41 = getelementptr inbounds nuw i8, ptr %35, i64 1
  %42 = load i8, ptr %41, align 1
  %43 = icmp eq i8 %42, 34
  br i1 %43, label %44, label %46

44:                                               ; preds = %40
  %45 = call ptr @pstrdup(ptr noundef nonnull @.str.326) #10
  br label %nullable_string.exit16

46:                                               ; preds = %40, %37, %nullable_string.exit
  %47 = call ptr @debackslash(ptr noundef %35, i32 noundef %36) #10
  br label %nullable_string.exit16

nullable_string.exit16:                           ; preds = %nullable_string.exit, %44, %46
  %.0.i15 = phi ptr [ %45, %44 ], [ %47, %46 ], [ null, %nullable_string.exit ]
  %48 = getelementptr inbounds nuw i8, ptr %2, i64 40
  store ptr %.0.i15, ptr %48, align 8
  %49 = call ptr @pg_strtok(ptr noundef nonnull %1) #10
  %50 = call ptr @pg_strtok(ptr noundef nonnull %1) #10
  %51 = call i64 @strtol(ptr noundef nonnull captures(none) %50, ptr noundef null, i32 noundef 10) #10
  %52 = trunc i64 %51 to i32
  %53 = getelementptr inbounds nuw i8, ptr %2, i64 48
  store i32 %52, ptr %53, align 8
  %54 = call ptr @pg_strtok(ptr noundef nonnull %1) #10
  %55 = call ptr @pg_strtok(ptr noundef nonnull %1) #10
  %56 = load i8, ptr %55, align 1
  %57 = icmp eq i8 %56, 116
  %58 = getelementptr inbounds nuw i8, ptr %2, i64 52
  %59 = zext i1 %57 to i8
  store i8 %59, ptr %58, align 4
  call void @llvm.lifetime.end.p0(i64 4, ptr nonnull %1) #10
  ret ptr %2
}